target datalayout = "e-m:e-p270:32:32-p271:32:32-p272:64:64-i64:64-i128:128-f80:128-n8:16:32:64-S128"
target triple = "x86_64-pc-linux-gnu"

%struct.t_methoddata_same = type { %union.anon.0, i32, %union.anon.1, ptr, i8 }
%union.anon.0 = type { ptr }
%union.anon.1 = type { ptr }

; Function Attrs: mustprogress uwtable
define internal void @_ZL19init_frame_same_strRKN3gmx20SelMethodEvalContextEPv(ptr noundef nonnull align 8 dereferenceable(24) %0, ptr noundef %1) #0 {
  %3 = alloca ptr, align 8
  %4 = alloca ptr, align 8
  %5 = alloca ptr, align 8
  %6 = alloca i32, align 4
  %7 = alloca i32, align 4
  store ptr %0, ptr %3, align 8
  store ptr %1, ptr %4, align 8
  %8 = load ptr, ptr %4, align 8
  store ptr %8, ptr %5, align 8
  %9 = load ptr, ptr %5, align 8
  %10 = getelementptr inbounds %struct.t_methoddata_same, ptr %9, i32 0, i32 4
  store i8 0, ptr %10, align 8
  %11 = load ptr, ptr %5, align 8
  %12 = getelementptr inbounds %struct.t_methoddata_same, ptr %11, i32 0, i32 1
  %13 = load i32, ptr %12, align 8
  %14 = icmp eq i32 %13, 0
  br i1 %14, label %15, label %16

15:                                               ; preds = %2
  br label %129

16:                                               ; preds = %2
  %17 = load ptr, ptr %5, align 8
  %18 = getelementptr inbounds %struct.t_methoddata_same, ptr %17, i32 0, i32 2
  %19 = load ptr, ptr %18, align 8
  %20 = getelementptr inbounds ptr, ptr %19, i64 0
  %21 = load ptr, ptr %20, align 8
  %22 = load ptr, ptr %5, align 8
  %23 = getelementptr inbounds %struct.t_methoddata_same, ptr %22, i32 0, i32 3
  %24 = load ptr, ptr %23, align 8
  %25 = getelementptr inbounds ptr, ptr %24, i64 0
  store ptr %21, ptr %25, align 8
  store i32 1, ptr %6, align 4
  store i32 0, ptr %7, align 4
  br label %26

26:                                               ; preds = %66, %16
  %27 = load i32, ptr %6, align 4
  %28 = load ptr, ptr %5, align 8
  %29 = getelementptr inbounds %struct.t_methoddata_same, ptr %28, i32 0, i32 1
  %30 = load i32, ptr %29, align 8
  %31 = icmp slt i32 %27, %30
  br i1 %31, label %32, label %69

32:                                               ; preds = %26
  %33 = load ptr, ptr %5, align 8
  %34 = getelementptr inbounds %struct.t_methoddata_same, ptr %33, i32 0, i32 2
  %35 = load ptr, ptr %34, align 8
  %36 = load i32, ptr %6, align 4
  %37 = sext i32 %36 to i64
  %38 = getelementptr inbounds ptr, ptr %35, i64 %37
  %39 = load ptr, ptr %38, align 8
  %40 = load ptr, ptr %5, align 8
  %41 = getelementptr inbounds %struct.t_methoddata_same, ptr %40, i32 0, i32 3
  %42 = load ptr, ptr %41, align 8
  %43 = load i32, ptr %7, align 4
  %44 = sext i32 %43 to i64
  %45 = getelementptr inbounds ptr, ptr %42, i64 %44
  %46 = load ptr, ptr %45, align 8
  %47 = call i32 @strcmp(ptr noundef %39, ptr noundef %46) #16
  %48 = icmp ne i32 %47, 0
  br i1 %48, label %49, label %65

49:                                               ; preds = %32
  %50 = load i32, ptr %7, align 4
  %51 = add nsw i32 %50, 1
  store i32 %51, ptr %7, align 4
  %52 = load ptr, ptr %5, align 8
  %53 = getelementptr inbounds %struct.t_methoddata_same, ptr %52, i32 0, i32 2
  %54 = load ptr, ptr %53, align 8
  %55 = load i32, ptr %6, align 4
  %56 = sext i32 %55 to i64
  %57 = getelementptr inbounds ptr, ptr %54, i64 %56
  %58 = load ptr, ptr %57, align 8
  %59 = load ptr, ptr %5, align 8
  %60 = getelementptr inbounds %struct.t_methoddata_same, ptr %59, i32 0, i32 3
  %61 = load ptr, ptr %60, align 8
  %62 = load i32, ptr %7, align 4
  %63 = sext i32 %62 to i64
  %64 = getelementptr inbounds ptr, ptr %61, i64 %63
  store ptr %58, ptr %64, align 8
  br label %65

65:                                               ; preds = %49, %32
  br label %66

66:                                               ; preds = %65
  %67 = load i32, ptr %6, align 4
  %68 = add nsw i32 %67, 1
  store i32 %68, ptr %6, align 4
  br label %26, !llvm.loop !14

69:                                               ; preds = %26
  %70 = load i32, ptr %7, align 4
  %71 = add nsw i32 %70, 1
  %72 = load ptr, ptr %5, align 8
  %73 = getelementptr inbounds %struct.t_methoddata_same, ptr %72, i32 0, i32 1
  store i32 %71, ptr %73, align 8
  %74 = load ptr, ptr %5, align 8
  %75 = getelementptr inbounds %struct.t_methoddata_same, ptr %74, i32 0, i32 3
  %76 = load ptr, ptr %75, align 8
  %77 = load ptr, ptr %5, align 8
  %78 = getelementptr inbounds %struct.t_methoddata_same, ptr %77, i32 0, i32 1
  %79 = load i32, ptr %78, align 8
  %80 = sext i32 %79 to i64
  call void @qsort(ptr noundef %76, i64 noundef %80, i64 noundef 8, ptr noundef @_ZL7cmp_strPKvS0_)
  store i32 1, ptr %6, align 4
  store i32 0, ptr %7, align 4
  br label %81

81:                                               ; preds = %121, %69
  %82 = load i32, ptr %6, align 4
  %83 = load ptr, ptr %5, align 8
  %84 = getelementptr inbounds %struct.t_methoddata_same, ptr %83, i32 0, i32 1
  %85 = load i32, ptr %84, align 8
  %86 = icmp slt i32 %82, %85
  br i1 %86, label %87, label %124

87:                                               ; preds = %81
  %88 = load ptr, ptr %5, align 8
  %89 = getelementptr inbounds %struct.t_methoddata_same, ptr %88, i32 0, i32 3
  %90 = load ptr, ptr %89, align 8
  %91 = load i32, ptr %6, align 4
  %92 = sext i32 %91 to i64
  %93 = getelementptr inbounds ptr, ptr %90, i64 %92
  %94 = load ptr, ptr %93, align 8
  %95 = load ptr, ptr %5, align 8
  %96 = getelementptr inbounds %struct.t_methoddata_same, ptr %95, i32 0, i32 3
  %97 = load ptr, ptr %96, align 8
  %98 = load i32, ptr %7, align 4
  %99 = sext i32 %98 to i64
  %100 = getelementptr inbounds ptr, ptr %97, i64 %99
  %101 = load ptr, ptr %100, align 8
  %102 = call i32 @strcmp(ptr noundef %94, ptr noundef %101) #16
  %103 = icmp ne i32 %102, 0
  br i1 %103, label %104, label %120

104:                                              ; preds = %87
  %105 = load i32, ptr %7, align 4
  %106 = add nsw i32 %105, 1
  store i32 %106, ptr %7, align 4
  %107 = load ptr, ptr %5, align 8
  %108 = getelementptr inbounds %struct.t_methoddata_same, ptr %107, i32 0, i32 3
  %109 = load ptr, ptr %108, align 8
  %110 = load i32, ptr %6, align 4
  %111 = sext i32 %110 to i64
  %112 = getelementptr inbounds ptr, ptr %109, i64 %111
  %113 = load ptr, ptr %112, align 8
  %114 = load ptr, ptr %5, align 8
  %115 = getelementptr inbounds %struct.t_methoddata_same, ptr %114, i32 0, i32 3
  %116 = load ptr, ptr %115, align 8
  %117 = load i32, ptr %7, align 4
  %118 = sext i32 %117 to i64
  %119 = getelementptr inbounds ptr, ptr %116, i64 %118
  store ptr %113, ptr %119, align 8
  br label %120

120:                                              ; preds = %104, %87
  br label %121

121:                                              ; preds = %120
  %122 = load i32, ptr %6, align 4
  %123 = add nsw i32 %122, 1
  store i32 %123, ptr %6, align 4
  br label %81, !llvm.loop !15

124:                                              ; preds = %81
  %125 = load i32, ptr %7, align 4
  %126 = add nsw i32 %125, 1
  %127 = load ptr, ptr %5, align 8
  %128 = getelementptr inbounds %struct.t_methoddata_same, ptr %127, i32 0, i32 1
  store i32 %126, ptr %128, align 8
  br label %129

129:                                              ; preds = %124, %15
  ret void
}