; Function Attrs: mustprogress nofree uwtable
define internal void @_ZL19init_frame_same_strRKN3gmx20SelMethodEvalContextEPv(ptr nocapture nonnull readnone align 8 %0, ptr nocapture noundef %1) #1 {
  %3 = getelementptr inbounds i8, ptr %1, i64 32
  store i8 0, ptr %3, align 8
  %4 = getelementptr inbounds i8, ptr %1, i64 8
  %5 = load i32, ptr %4, align 8
  %6 = icmp eq i32 %5, 0
  br i1 %6, label %54, label %7

7:                                                ; preds = %2
  %8 = getelementptr inbounds i8, ptr %1, i64 16
  %9 = load ptr, ptr %8, align 8
  %10 = load ptr, ptr %9, align 8
  %11 = getelementptr inbounds i8, ptr %1, i64 24
  %12 = load ptr, ptr %11, align 8
  store ptr %10, ptr %12, align 8
  %13 = load i32, ptr %4, align 8
  %14 = icmp sgt i32 %13, 1
  br i1 %14, label %.lr.ph, label %._crit_edge

.lr.ph:                                           ; preds = %7, %28
  %15 = phi i32 [ %29, %28 ], [ %13, %7 ]
  %indvars.iv = phi i64 [ %indvars.iv.next, %28 ], [ 1, %7 ]
  %.038 = phi i32 [ %.1, %28 ], [ 0, %7 ]
  %16 = load ptr, ptr %8, align 8
  %17 = getelementptr inbounds ptr, ptr %16, i64 %indvars.iv
  %18 = load ptr, ptr %17, align 8
  %19 = load ptr, ptr %11, align 8
  %20 = sext i32 %.038 to i64
  %21 = getelementptr inbounds ptr, ptr %19, i64 %20
  %22 = load ptr, ptr %21, align 8
  %23 = tail call i32 @strcmp(ptr noundef nonnull dereferenceable(1) %18, ptr noundef nonnull dereferenceable(1) %22) #23
  %.not36 = icmp eq i32 %23, 0
  br i1 %.not36, label %28, label %24

24:                                               ; preds = %.lr.ph
  %25 = add nsw i32 %.038, 1
  %26 = sext i32 %25 to i64
  %27 = getelementptr inbounds ptr, ptr %19, i64 %26
  store ptr %18, ptr %27, align 8
  %.pre = load i32, ptr %4, align 8
  br label %28

28:                                               ; preds = %.lr.ph, %24
  %29 = phi i32 [ %.pre, %24 ], [ %15, %.lr.ph ]
  %.1 = phi i32 [ %25, %24 ], [ %.038, %.lr.ph ]
  %indvars.iv.next = add nuw nsw i64 %indvars.iv, 1
  %30 = sext i32 %29 to i64
  %31 = icmp slt i64 %indvars.iv.next, %30
  br i1 %31, label %.lr.ph, label %._crit_edge.loopexit, !llvm.loop !14

._crit_edge.loopexit:                             ; preds = %28
  %32 = add nsw i32 %.1, 1
  br label %._crit_edge

._crit_edge:                                      ; preds = %._crit_edge.loopexit, %7
  %.0.lcssa = phi i32 [ 1, %7 ], [ %32, %._crit_edge.loopexit ]
  store i32 %.0.lcssa, ptr %4, align 8
  %33 = load ptr, ptr %11, align 8
  %34 = sext i32 %.0.lcssa to i64
  tail call void @qsort(ptr noundef %33, i64 noundef %34, i64 noundef 8, ptr noundef nonnull @_ZL7cmp_strPKvS0_)
  %35 = load i32, ptr %4, align 8
  %36 = icmp sgt i32 %35, 1
  br i1 %36, label %.lr.ph42, label %._crit_edge43

.lr.ph42:                                         ; preds = %._crit_edge, %49
  %37 = phi i32 [ %50, %49 ], [ %35, %._crit_edge ]
  %indvars.iv46 = phi i64 [ %indvars.iv.next47, %49 ], [ 1, %._crit_edge ]
  %.240 = phi i32 [ %.3, %49 ], [ 0, %._crit_edge ]
  %38 = load ptr, ptr %11, align 8
  %39 = getelementptr inbounds ptr, ptr %38, i64 %indvars.iv46
  %40 = load ptr, ptr %39, align 8
  %41 = sext i32 %.240 to i64
  %42 = getelementptr inbounds ptr, ptr %38, i64 %41
  %43 = load ptr, ptr %42, align 8
  %44 = tail call i32 @strcmp(ptr noundef nonnull dereferenceable(1) %40, ptr noundef nonnull dereferenceable(1) %43) #23
  %.not = icmp eq i32 %44, 0
  br i1 %.not, label %49, label %45

45:                                               ; preds = %.lr.ph42
  %46 = add nsw i32 %.240, 1
  %47 = sext i32 %46 to i64
  %48 = getelementptr inbounds ptr, ptr %38, i64 %47
  store ptr %40, ptr %48, align 8
  %.pre49 = load i32, ptr %4, align 8
  br label %49

49:                                               ; preds = %.lr.ph42, %45
  %50 = phi i32 [ %.pre49, %45 ], [ %37, %.lr.ph42 ]
  %.3 = phi i32 [ %46, %45 ], [ %.240, %.lr.ph42 ]
  %indvars.iv.next47 = add nuw nsw i64 %indvars.iv46, 1
  %51 = sext i32 %50 to i64
  %52 = icmp slt i64 %indvars.iv.next47, %51
  br i1 %52, label %.lr.ph42, label %._crit_edge43.loopexit, !llvm.loop !15

._crit_edge43.loopexit:                           ; preds = %49
  %53 = add nsw i32 %.3, 1
  br label %._crit_edge43

._crit_edge43:                                    ; preds = %._crit_edge43.loopexit, %._crit_edge
  %.2.lcssa = phi i32 [ 1, %._crit_edge ], [ %53, %._crit_edge43.loopexit ]
  store i32 %.2.lcssa, ptr %4, align 8
  br label %54

54:                                               ; preds = %2, %._crit_edge43
  ret void
}